target datalayout = "e-m:e-p270:32:32-p271:32:32-p272:64:64-i64:64-i128:128-f80:128-n8:16:32:64-S128"
target triple = "x86_64-pc-linux-gnu"

%struct.IDAMemRec = type { double, ptr, ptr, i32, double, double, ptr, i32, ptr, ptr, i32, ptr, ptr, i32, i32, double, double, ptr, i32, i32, i32, ptr, ptr, i32, ptr, ptr, ptr, i32, double, i32, i32, double, ptr, ptr, i32, ptr, ptr, i32, i32, i32, double, ptr, ptr, [6 x ptr], [6 x double], [6 x double], [6 x double], [6 x double], [6 x double], ptr, ptr, ptr, ptr, ptr, ptr, ptr, ptr, ptr, ptr, ptr, ptr, ptr, ptr, ptr, [6 x ptr], ptr, ptr, ptr, ptr, [6 x ptr], ptr, ptr, ptr, ptr, ptr, ptr, ptr, ptr, ptr, ptr, ptr, ptr, ptr, ptr, [6 x ptr], ptr, ptr, ptr, ptr, ptr, double, ptr, ptr, i32, i32, i32, i32, i32, i32, i32, double, double, double, i32, double, i32, i32, i32, i32, double, double, double, double, double, double, double, double, double, double, double, double, double, double, i32, i32, i32, i32, i32, i64, double, i32, i64, i64, i64, i64, i64, i64, i64, i64, i64, i64, i64, i64, i64, i64, i64, i64, i64, i64, i64, i64, i64, i64, i64, i64, ptr, ptr, ptr, i32, i32, i32, i32, i32, i32, i32, i32, i32, i32, i32, i32, i32, ptr, ptr, ptr, ptr, ptr, ptr, i32, i32, i32, i32, i32, i32, double, double, double, ptr, i32, ptr, ptr, double, double, double, ptr, ptr, ptr, double, double, i32, i32, i64, ptr, i32, i32, ptr, i32 }
%struct.IDASpilsMemRec = type { i32, i32, double, i32, i32, double, double, double, i64, i64, i64, i64, i64, i64, i64, i64, i64, i64, i64, i64, ptr, ptr, ptr, ptr, ptr, ptr, ptr, i64, ptr, ptr, ptr, ptr, i32, ptr, ptr }
%struct.IDAadjMemRec = type { double, double, i32, i32, double, ptr, i32, ptr, i32, ptr, ptr, i32, i64, ptr, i64, i32, ptr, ptr, ptr, ptr, i32, i32, i32, i32, i32, [6 x ptr], [6 x ptr], [6 x double], ptr, ptr, ptr, ptr, i64 }
%struct.IDABMemRec = type { i32, double, ptr, i32, i32, ptr, ptr, ptr, ptr, ptr, ptr, ptr, ptr, ptr, double, ptr, ptr, ptr }
%struct.IDASpilsMemRecB = type { ptr, ptr, ptr, ptr, ptr, ptr, ptr }

@.str = private unnamed_addr constant [10 x i8] c"IDASSPILS\00", align 1
@.str.2 = private unnamed_addr constant [27 x i8] c"Integrator memory is NULL.\00", align 1
@.str.3 = private unnamed_addr constant [30 x i8] c"Linear solver memory is NULL.\00", align 1
@.str.13 = private unnamed_addr constant [26 x i8] c"IDASpilsSetPreconditioner\00", align 1
@.str.31 = private unnamed_addr constant [51 x i8] c"Illegal attempt to call before calling IDAAdjInit.\00", align 1
@.str.32 = private unnamed_addr constant [25 x i8] c"Illegal value for which.\00", align 1
@.str.37 = private unnamed_addr constant [27 x i8] c"IDASpilsSetPreconditionerB\00", align 1
@.str.38 = private unnamed_addr constant [59 x i8] c"Linear solver memory is NULL for the backward integration.\00", align 1

; Function Attrs: nounwind uwtable
define i32 @IDASpilsSetPreconditioner(ptr noundef %0, ptr noundef %1, ptr noundef %2) #0 {
  %4 = alloca i32, align 4
  %5 = alloca ptr, align 8
  %6 = alloca ptr, align 8
  %7 = alloca ptr, align 8
  %8 = alloca ptr, align 8
  %9 = alloca ptr, align 8
  %10 = alloca i32, align 4
  store ptr %0, ptr %5, align 8, !tbaa !3
  store ptr %1, ptr %6, align 8, !tbaa !3
  store ptr %2, ptr %7, align 8, !tbaa !3
  call void @llvm.lifetime.start.p0(i64 8, ptr %8) #5
  call void @llvm.lifetime.start.p0(i64 8, ptr %9) #5
  %11 = load ptr, ptr %5, align 8, !tbaa !3
  %12 = icmp eq ptr %11, null
  br i1 %12, label %13, label %14

13:                                               ; preds = %3
  call void (ptr, i32, ptr, ptr, ptr, ...) @IDAProcessError(ptr noundef null, i32 noundef -1, ptr noundef @.str, ptr noundef @.str.13, ptr noundef @.str.2)
  store i32 -1, ptr %4, align 4
  store i32 1, ptr %10, align 4
  br label %32

14:                                               ; preds = %3
  %15 = load ptr, ptr %5, align 8, !tbaa !3
  store ptr %15, ptr %8, align 8, !tbaa !9
  %16 = load ptr, ptr %8, align 8, !tbaa !9
  %17 = getelementptr inbounds nuw %struct.IDAMemRec, ptr %16, i32 0, i32 176
  %18 = load ptr, ptr %17, align 8, !tbaa !11
  %19 = icmp eq ptr %18, null
  br i1 %19, label %20, label %22

20:                                               ; preds = %14
  %21 = load ptr, ptr %8, align 8, !tbaa !9
  call void (ptr, i32, ptr, ptr, ptr, ...) @IDAProcessError(ptr noundef %21, i32 noundef -2, ptr noundef @.str, ptr noundef @.str.13, ptr noundef @.str.3)
  store i32 -2, ptr %4, align 4
  store i32 1, ptr %10, align 4
  br label %32

22:                                               ; preds = %14
  %23 = load ptr, ptr %8, align 8, !tbaa !9
  %24 = getelementptr inbounds nuw %struct.IDAMemRec, ptr %23, i32 0, i32 176
  %25 = load ptr, ptr %24, align 8, !tbaa !11
  store ptr %25, ptr %9, align 8, !tbaa !21
  %26 = load ptr, ptr %6, align 8, !tbaa !3
  %27 = load ptr, ptr %9, align 8, !tbaa !21
  %28 = getelementptr inbounds nuw %struct.IDASpilsMemRec, ptr %27, i32 0, i32 28
  store ptr %26, ptr %28, align 8, !tbaa !31
  %29 = load ptr, ptr %7, align 8, !tbaa !3
  %30 = load ptr, ptr %9, align 8, !tbaa !21
  %31 = getelementptr inbounds nuw %struct.IDASpilsMemRec, ptr %30, i32 0, i32 29
  store ptr %29, ptr %31, align 8, !tbaa !32
  store i32 0, ptr %4, align 4
  store i32 1, ptr %10, align 4
  br label %32

32:                                               ; preds = %22, %20, %13
  call void @llvm.lifetime.end.p0(i64 8, ptr %9) #5
  call void @llvm.lifetime.end.p0(i64 8, ptr %8) #5
  %33 = load i32, ptr %4, align 4
  ret i32 %33
}

; Function Attrs: nounwind uwtable
define i32 @IDASpilsSetPreconditionerB(ptr noundef %0, i32 noundef %1, ptr noundef %2, ptr noundef %3) #0 {
  %5 = alloca i32, align 4
  %6 = alloca ptr, align 8
  %7 = alloca i32, align 4
  %8 = alloca ptr, align 8
  %9 = alloca ptr, align 8
  %10 = alloca ptr, align 8
  %11 = alloca ptr, align 8
  %12 = alloca ptr, align 8
  %13 = alloca ptr, align 8
  %14 = alloca ptr, align 8
  %15 = alloca i32, align 4
  store ptr %0, ptr %6, align 8, !tbaa !3
  store i32 %1, ptr %7, align 4, !tbaa !7
  store ptr %2, ptr %8, align 8, !tbaa !3
  store ptr %3, ptr %9, align 8, !tbaa !3
  call void @llvm.lifetime.start.p0(i64 8, ptr %10) #5
  call void @llvm.lifetime.start.p0(i64 8, ptr %11) #5
  call void @llvm.lifetime.start.p0(i64 8, ptr %12) #5
  call void @llvm.lifetime.start.p0(i64 8, ptr %13) #5
  call void @llvm.lifetime.start.p0(i64 8, ptr %14) #5
  %16 = load ptr, ptr %6, align 8, !tbaa !3
  %17 = icmp eq ptr %16, null
  br i1 %17, label %18, label %19

18:                                               ; preds = %4
  call void (ptr, i32, ptr, ptr, ptr, ...) @IDAProcessError(ptr noundef null, i32 noundef -1, ptr noundef @.str, ptr noundef @.str.37, ptr noundef @.str.2)
  store i32 -1, ptr %5, align 4
  store i32 1, ptr %15, align 4
  br label %84

19:                                               ; preds = %4
  %20 = load ptr, ptr %6, align 8, !tbaa !3
  store ptr %20, ptr %11, align 8, !tbaa !9
  %21 = load ptr, ptr %11, align 8, !tbaa !9
  %22 = getelementptr inbounds nuw %struct.IDAMemRec, ptr %21, i32 0, i32 205
  %23 = load i32, ptr %22, align 8, !tbaa !66
  %24 = icmp eq i32 %23, 0
  br i1 %24, label %25, label %27

25:                                               ; preds = %19
  %26 = load ptr, ptr %11, align 8, !tbaa !9
  call void (ptr, i32, ptr, ptr, ptr, ...) @IDAProcessError(ptr noundef %26, i32 noundef -101, ptr noundef @.str, ptr noundef @.str.37, ptr noundef @.str.31)
  store i32 -101, ptr %5, align 4
  store i32 1, ptr %15, align 4
  br label %84

27:                                               ; preds = %19
  %28 = load ptr, ptr %11, align 8, !tbaa !9
  %29 = getelementptr inbounds nuw %struct.IDAMemRec, ptr %28, i32 0, i32 204
  %30 = load ptr, ptr %29, align 8, !tbaa !67
  store ptr %30, ptr %10, align 8, !tbaa !68
  %31 = load i32, ptr %7, align 4, !tbaa !7
  %32 = load ptr, ptr %10, align 8, !tbaa !68
  %33 = getelementptr inbounds nuw %struct.IDAadjMemRec, ptr %32, i32 0, i32 6
  %34 = load i32, ptr %33, align 8, !tbaa !69
  %35 = icmp sge i32 %31, %34
  br i1 %35, label %36, label %38

36:                                               ; preds = %27
  %37 = load ptr, ptr %11, align 8, !tbaa !9
  call void (ptr, i32, ptr, ptr, ptr, ...) @IDAProcessError(ptr noundef %37, i32 noundef -3, ptr noundef @.str, ptr noundef @.str.37, ptr noundef @.str.32)
  store i32 -3, ptr %5, align 4
  store i32 1, ptr %15, align 4
  br label %84

38:                                               ; preds = %27
  %39 = load ptr, ptr %10, align 8, !tbaa !68
  %40 = getelementptr inbounds nuw %struct.IDAadjMemRec, ptr %39, i32 0, i32 5
  %41 = load ptr, ptr %40, align 8, !tbaa !74
  store ptr %41, ptr %12, align 8, !tbaa !75
  br label %42

42:                                               ; preds = %52, %38
  %43 = load ptr, ptr %12, align 8, !tbaa !75
  %44 = icmp ne ptr %43, null
  br i1 %44, label %45, label %56

45:                                               ; preds = %42
  %46 = load i32, ptr %7, align 4, !tbaa !7
  %47 = load ptr, ptr %12, align 8, !tbaa !75
  %48 = getelementptr inbounds nuw %struct.IDABMemRec, ptr %47, i32 0, i32 0
  %49 = load i32, ptr %48, align 8, !tbaa !76
  %50 = icmp eq i32 %46, %49
  br i1 %50, label %51, label %52

51:                                               ; preds = %45
  br label %56

52:                                               ; preds = %45
  %53 = load ptr, ptr %12, align 8, !tbaa !75
  %54 = getelementptr inbounds nuw %struct.IDABMemRec, ptr %53, i32 0, i32 17
  %55 = load ptr, ptr %54, align 8, !tbaa !78
  store ptr %55, ptr %12, align 8, !tbaa !75
  br label %42, !llvm.loop !85

56:                                               ; preds = %51, %42
  %57 = load ptr, ptr %12, align 8, !tbaa !75
  %58 = getelementptr inbounds nuw %struct.IDABMemRec, ptr %57, i32 0, i32 2
  %59 = load ptr, ptr %58, align 8, !tbaa !80
  store ptr %59, ptr %13, align 8, !tbaa !3
  %60 = load ptr, ptr %12, align 8, !tbaa !75
  %61 = getelementptr inbounds nuw %struct.IDABMemRec, ptr %60, i32 0, i32 10
  %62 = load ptr, ptr %61, align 8, !tbaa !86
  %63 = icmp eq ptr %62, null
  br i1 %63, label %64, label %66

64:                                               ; preds = %56
  %65 = load ptr, ptr %11, align 8, !tbaa !9
  call void (ptr, i32, ptr, ptr, ptr, ...) @IDAProcessError(ptr noundef %65, i32 noundef -102, ptr noundef @.str, ptr noundef @.str.37, ptr noundef @.str.38)
  store i32 -3, ptr %5, align 4
  store i32 1, ptr %15, align 4
  br label %84

66:                                               ; preds = %56
  %67 = load ptr, ptr %12, align 8, !tbaa !75
  %68 = getelementptr inbounds nuw %struct.IDABMemRec, ptr %67, i32 0, i32 10
  %69 = load ptr, ptr %68, align 8, !tbaa !86
  store ptr %69, ptr %14, align 8, !tbaa !87
  %70 = load ptr, ptr %8, align 8, !tbaa !3
  %71 = load ptr, ptr %14, align 8, !tbaa !87
  %72 = getelementptr inbounds nuw %struct.IDASpilsMemRecB, ptr %71, i32 0, i32 2
  store ptr %70, ptr %72, align 8, !tbaa !89
  %73 = load ptr, ptr %9, align 8, !tbaa !3
  %74 = load ptr, ptr %14, align 8, !tbaa !87
  %75 = getelementptr inbounds nuw %struct.IDASpilsMemRecB, ptr %74, i32 0, i32 4
  store ptr %73, ptr %75, align 8, !tbaa !91
  %76 = load ptr, ptr %8, align 8, !tbaa !3
  %77 = icmp eq ptr %76, null
  br i1 %77, label %78, label %81

78:                                               ; preds = %66
  %79 = load ptr, ptr %13, align 8, !tbaa !3
  %80 = call i32 @IDASpilsSetPreconditioner(ptr noundef %79, ptr noundef null, ptr noundef @IDAAspilsPrecSolveB)
  store i32 %80, ptr %5, align 4
  store i32 1, ptr %15, align 4
  br label %84

81:                                               ; preds = %66
  %82 = load ptr, ptr %13, align 8, !tbaa !3
  %83 = call i32 @IDASpilsSetPreconditioner(ptr noundef %82, ptr noundef @IDAAspilsPrecSetupB, ptr noundef @IDAAspilsPrecSolveB)
  store i32 %83, ptr %5, align 4
  store i32 1, ptr %15, align 4
  br label %84

84:                                               ; preds = %81, %78, %64, %36, %25, %18
  call void @llvm.lifetime.end.p0(i64 8, ptr %14) #5
  call void @llvm.lifetime.end.p0(i64 8, ptr %13) #5
  call void @llvm.lifetime.end.p0(i64 8, ptr %12) #5
  call void @llvm.lifetime.end.p0(i64 8, ptr %11) #5
  call void @llvm.lifetime.end.p0(i64 8, ptr %10) #5
  %85 = load i32, ptr %5, align 4
  ret i32 %85
}